; Function Attrs: nounwind uwtable
define internal noundef ptr @async_gen_asend_close(ptr noundef captures(none) %0, ptr readnone captures(none) %1) #2 {
  %3 = getelementptr inbounds nuw i8, ptr %0, i64 32
  %4 = load i32, ptr %3, align 8, !tbaa !169
  switch i32 %4, label %._crit_edge.i [
    i32 2, label %40
    i32 0, label %5
  ]

._crit_edge.i:                                    ; preds = %2
  %.phi.trans.insert.i = getelementptr inbounds nuw i8, ptr %0, i64 16
  %.pre.i = load ptr, ptr %.phi.trans.insert.i, align 8, !tbaa !166
  br label %13

5:                                                ; preds = %2
  %6 = getelementptr inbounds nuw i8, ptr %0, i64 16
  %7 = load ptr, ptr %6, align 8, !tbaa !166
  %8 = getelementptr inbounds nuw i8, ptr %7, i64 66
  %9 = load i8, ptr %8, align 2, !tbaa !170
  %.not.i11 = icmp eq i8 %9, 0
  br i1 %.not.i11, label %12, label %10

10:                                               ; preds = %5
  store i32 2, ptr %3, align 8, !tbaa !169
  %11 = load ptr, ptr @PyExc_RuntimeError, align 8, !tbaa !32
  tail call void @PyErr_SetString(ptr noundef %11, ptr noundef nonnull @.str.78) #8
  br label %24

12:                                               ; preds = %5
  store i32 1, ptr %3, align 8, !tbaa !169
  store i8 1, ptr %8, align 2, !tbaa !170
  br label %13

13:                                               ; preds = %12, %._crit_edge.i
  %14 = phi ptr [ %.pre.i, %._crit_edge.i ], [ %7, %12 ]
  %15 = getelementptr inbounds nuw i8, ptr %0, i64 16
  %16 = load ptr, ptr @PyExc_GeneratorExit, align 8, !tbaa !32
  %17 = tail call fastcc ptr @_gen_throw(ptr noundef %14, i32 noundef 1, ptr noundef %16, ptr noundef null, ptr noundef null)
  %18 = load ptr, ptr %15, align 8, !tbaa !166
  %19 = tail call fastcc ptr @async_gen_unwrap_value(ptr noundef %18, ptr noundef %17)
  %20 = icmp eq ptr %19, null
  br i1 %20, label %21, label %async_gen_asend_throw.exit

21:                                               ; preds = %13
  %22 = load ptr, ptr %15, align 8, !tbaa !166
  %23 = getelementptr inbounds nuw i8, ptr %22, i64 66
  store i8 0, ptr %23, align 2, !tbaa !170
  store i32 2, ptr %3, align 8, !tbaa !169
  br label %24

24:                                               ; preds = %10, %21
  %25 = load ptr, ptr @PyExc_StopIteration, align 8, !tbaa !32
  %26 = tail call i32 @PyErr_ExceptionMatches(ptr noundef %25) #8
  %.not = icmp eq i32 %26, 0
  br i1 %.not, label %27, label %33

27:                                               ; preds = %24
  %28 = load ptr, ptr @PyExc_StopAsyncIteration, align 8, !tbaa !32
  %29 = tail call i32 @PyErr_ExceptionMatches(ptr noundef %28) #8
  %.not9 = icmp eq i32 %29, 0
  br i1 %.not9, label %30, label %33

30:                                               ; preds = %27
  %31 = load ptr, ptr @PyExc_GeneratorExit, align 8, !tbaa !32
  %32 = tail call i32 @PyErr_ExceptionMatches(ptr noundef %31) #8
  %.not10 = icmp eq i32 %32, 0
  br i1 %.not10, label %40, label %33

33:                                               ; preds = %30, %27, %24
  tail call void @PyErr_Clear() #8
  br label %40

async_gen_asend_throw.exit:                       ; preds = %13
  %34 = load i32, ptr %19, align 8, !tbaa !4
  %.not.i = icmp sgt i32 %34, -1
  br i1 %.not.i, label %35, label %Py_DECREF.exit

35:                                               ; preds = %async_gen_asend_throw.exit
  %36 = add nsw i32 %34, -1
  store i32 %36, ptr %19, align 8, !tbaa !4
  %37 = icmp eq i32 %36, 0
  br i1 %37, label %38, label %Py_DECREF.exit

38:                                               ; preds = %35
  tail call void @_Py_Dealloc(ptr noundef nonnull %19) #8
  br label %Py_DECREF.exit

Py_DECREF.exit:                                   ; preds = %async_gen_asend_throw.exit, %35, %38
  %39 = load ptr, ptr @PyExc_RuntimeError, align 8, !tbaa !32
  tail call void @PyErr_SetString(ptr noundef %39, ptr noundef nonnull @.str.14) #8
  br label %40

40:                                               ; preds = %2, %33, %Py_DECREF.exit, %30
  %.0 = phi ptr [ @_Py_NoneStruct, %2 ], [ @_Py_NoneStruct, %33 ], [ null, %Py_DECREF.exit ], [ null, %30 ]
  ret ptr %.0
}